; Function Attrs: mustprogress uwtable
define noundef zeroext i1 @_ZNK8QuantLib7Forward9isExpiredEv(ptr noundef nonnull align 8 dereferenceable(224) %this) unnamed_addr #9 align 2 personality ptr @__gxx_personality_v0 {
entry:
  %ref.tmp = alloca %"class.QuantLib::detail::simple_event", align 8
  %ref.tmp2 = alloca %"class.QuantLib::Date", align 8
  call void @llvm.lifetime.start.p0(i64 72, ptr nonnull %ref.tmp) #27
  %maturityDate_ = getelementptr inbounds nuw i8, ptr %this, i64 184
  %0 = getelementptr inbounds i8, ptr %ref.tmp, i64 16
  %1 = getelementptr inbounds i8, ptr %ref.tmp, i64 32
  store i32 0, ptr %1, align 8, !tbaa !8
  %_M_parent.i.i.i.i.i.i.i = getelementptr inbounds i8, ptr %ref.tmp, i64 40
  store ptr null, ptr %_M_parent.i.i.i.i.i.i.i, align 8, !tbaa !13
  %_M_left.i.i.i.i.i.i.i = getelementptr inbounds i8, ptr %ref.tmp, i64 48
  store ptr %1, ptr %_M_left.i.i.i.i.i.i.i, align 8, !tbaa !14
  %_M_right.i.i.i.i.i.i.i = getelementptr inbounds i8, ptr %ref.tmp, i64 56
  store ptr %1, ptr %_M_right.i.i.i.i.i.i.i, align 8, !tbaa !15
  %_M_node_count.i.i.i.i.i.i.i = getelementptr inbounds i8, ptr %ref.tmp, i64 64
  store i64 0, ptr %_M_node_count.i.i.i.i.i.i.i, align 8, !tbaa !16
  store ptr getelementptr inbounds inrange(-24, 40) (i8, ptr @_ZTVN8QuantLib6detail12simple_eventE, i64 24), ptr %ref.tmp, align 8, !tbaa !33
  store ptr getelementptr inbounds inrange(-24, 16) (i8, ptr @_ZTVN8QuantLib6detail12simple_eventE, i64 88), ptr %0, align 8, !tbaa !33
  %date_.i = getelementptr inbounds nuw i8, ptr %ref.tmp, i64 8
  %2 = load i64, ptr %maturityDate_, align 8, !tbaa !37
  store i64 %2, ptr %date_.i, align 8, !tbaa !37
  call void @llvm.lifetime.start.p0(i64 8, ptr nonnull %ref.tmp2) #27
  %vtable = load ptr, ptr %this, align 8, !tbaa !33
  %vfn = getelementptr inbounds i8, ptr %vtable, i64 72
  %3 = load ptr, ptr %vfn, align 8
  %call = invoke i64 %3(ptr noundef nonnull align 8 dereferenceable(224) %this)
          to label %invoke.cont unwind label %lpad

invoke.cont:                                      ; preds = %entry
  store i64 %call, ptr %ref.tmp2, align 8
  %call6 = invoke noundef zeroext i1 @_ZNK8QuantLib5Event11hasOccurredERKNS_4DateEN5boost8optionalIbEE(ptr noundef nonnull align 8 dereferenceable(8) %ref.tmp, ptr noundef nonnull align 8 dereferenceable(8) %ref.tmp2, i16 0)
          to label %invoke.cont5 unwind label %lpad

invoke.cont5:                                     ; preds = %invoke.cont
  call void @llvm.lifetime.end.p0(i64 8, ptr nonnull %ref.tmp2) #27
  store ptr getelementptr inbounds inrange(-16, 16) (i8, ptr @_ZTVN8QuantLib10ObservableE, i64 16), ptr %0, align 8, !tbaa !33
  %observers_.i.i = getelementptr inbounds i8, ptr %ref.tmp, i64 24
  %4 = load ptr, ptr %_M_parent.i.i.i.i.i.i.i, align 8, !tbaa !13
  invoke void @_ZNSt8_Rb_treeIPN8QuantLib8ObserverES2_St9_IdentityIS2_ESt4lessIS2_ESaIS2_EE8_M_eraseEPSt13_Rb_tree_nodeIS2_E(ptr noundef nonnull align 8 dereferenceable(48) %observers_.i.i, ptr noundef %4)
          to label %_ZN8QuantLib6detail12simple_eventD1Ev.exit unwind label %terminate.lpad.i.i.i.i

terminate.lpad.i.i.i.i:                           ; preds = %invoke.cont5
  %5 = landingpad { ptr, i32 }
          catch ptr null
  %6 = extractvalue { ptr, i32 } %5, 0
  call void @__clang_call_terminate(ptr %6) #28
  unreachable

_ZN8QuantLib6detail12simple_eventD1Ev.exit:       ; preds = %invoke.cont5
  call void @llvm.lifetime.end.p0(i64 72, ptr nonnull %ref.tmp) #27
  ret i1 %call6

lpad:                                             ; preds = %invoke.cont, %entry
  %7 = landingpad { ptr, i32 }
          cleanup
  call void @llvm.lifetime.end.p0(i64 8, ptr nonnull %ref.tmp2) #27
  call void @_ZN8QuantLib6detail12simple_eventD1Ev(ptr noundef nonnull align 8 dereferenceable(16) %ref.tmp) #27
  call void @llvm.lifetime.end.p0(i64 72, ptr nonnull %ref.tmp) #27
  resume { ptr, i32 } %7
}